target datalayout = "e-m:e-p270:32:32-p271:32:32-p272:64:64-i64:64-i128:128-f80:128-n8:16:32:64-S128"
target triple = "x86_64-pc-linux-gnu"

%"class.std::__cxx11::basic_string" = type { %"struct.std::__cxx11::basic_string<char>::_Alloc_hider", i64, %union.anon }
%"struct.std::__cxx11::basic_string<char>::_Alloc_hider" = type { ptr }
%union.anon = type { i64, [8 x i8] }
%"struct.faiss::IndexFlatCodes" = type { %"struct.faiss::Index.base", i64, %"class.std::vector" }
%"struct.faiss::Index.base" = type <{ ptr, i32, [4 x i8], i64, i8, i8, [2 x i8], i32, float }>
%"class.std::vector" = type { %"struct.std::_Vector_base" }
%"struct.std::_Vector_base" = type { %"struct.std::_Vector_base<unsigned char, std::allocator<unsigned char>>::_Vector_impl" }
%"struct.std::_Vector_base<unsigned char, std::allocator<unsigned char>>::_Vector_impl" = type { %"struct.std::_Vector_base<unsigned char, std::allocator<unsigned char>>::_Vector_impl_data" }
%"struct.std::_Vector_base<unsigned char, std::allocator<unsigned char>>::_Vector_impl_data" = type { ptr, ptr, ptr }
%"struct.faiss::AdditiveQuantizer" = type <{ %"struct.faiss::Quantizer", i64, %"class.std::vector.0", %"class.std::vector.5", %"class.std::vector.0", i64, i64, i64, i8, i8, i8, [5 x i8], %"struct.faiss::IndexFlat1D", %"class.std::vector.5", i64, i32, float, float, [4 x i8] }>
%"struct.faiss::Quantizer" = type { ptr, i64, i64 }
%"class.std::vector.0" = type { %"struct.std::_Vector_base.1" }
%"struct.std::_Vector_base.1" = type { %"struct.std::_Vector_base<unsigned long, std::allocator<unsigned long>>::_Vector_impl" }
%"struct.std::_Vector_base<unsigned long, std::allocator<unsigned long>>::_Vector_impl" = type { %"struct.std::_Vector_base<unsigned long, std::allocator<unsigned long>>::_Vector_impl_data" }
%"struct.std::_Vector_base<unsigned long, std::allocator<unsigned long>>::_Vector_impl_data" = type { ptr, ptr, ptr }
%"struct.faiss::IndexFlat1D" = type { %"struct.faiss::IndexFlatL2", i8, %"class.std::vector.10" }
%"struct.faiss::IndexFlatL2" = type { %"struct.faiss::IndexFlat", %"class.std::vector.5" }
%"struct.faiss::IndexFlat" = type { %"struct.faiss::IndexFlatCodes" }
%"class.std::vector.10" = type { %"struct.std::_Vector_base.11" }
%"struct.std::_Vector_base.11" = type { %"struct.std::_Vector_base<long, std::allocator<long>>::_Vector_impl" }
%"struct.std::_Vector_base<long, std::allocator<long>>::_Vector_impl" = type { %"struct.std::_Vector_base<long, std::allocator<long>>::_Vector_impl_data" }
%"struct.std::_Vector_base<long, std::allocator<long>>::_Vector_impl_data" = type { ptr, ptr, ptr }
%"class.std::vector.5" = type { %"struct.std::_Vector_base.6" }
%"struct.std::_Vector_base.6" = type { %"struct.std::_Vector_base<float, std::allocator<float>>::_Vector_impl" }
%"struct.std::_Vector_base<float, std::allocator<float>>::_Vector_impl" = type { %"struct.std::_Vector_base<float, std::allocator<float>>::_Vector_impl_data" }
%"struct.std::_Vector_base<float, std::allocator<float>>::_Vector_impl_data" = type { ptr, ptr, ptr }
%"struct.faiss::Index" = type <{ ptr, i32, [4 x i8], i64, i8, i8, [2 x i8], i32, float, [4 x i8] }>
%"struct.faiss::AdditiveCoarseQuantizer" = type { %"struct.faiss::Index.base", ptr, %"class.std::vector.5" }

@.str.2 = private unnamed_addr constant [122 x i8] c"generated/home/dtcxzyw/WorkSpace/Projects/compilers/llvm-opt-benchmark/bench/faiss/faiss/faiss/IndexAdditiveQuantizer.cpp\00", align 1
@_ZTIN5faiss14FaissExceptionE = external constant ptr
@.str.10 = private unnamed_addr constant [57 x i8] c"AdditiveCoarseQuantizer::train: training on %zd vectors\0A\00", align 1
@.str.11 = private unnamed_addr constant [111 x i8] c"Error: '%s' failed: the RCQ norms matrix will become too large, please reduce the number of quantization steps\00", align 1
@.str.12 = private unnamed_addr constant [36 x i8] c"norms_size <= aq->max_mem_distances\00", align 1
@__PRETTY_FUNCTION__._ZN5faiss23AdditiveCoarseQuantizer5trainElPKf = private unnamed_addr constant [73 x i8] c"virtual void faiss::AdditiveCoarseQuantizer::train(idx_t, const float *)\00", align 1
@.str.13 = private unnamed_addr constant [76 x i8] c"AdditiveCoarseQuantizer::train: computing centroid norms for %zd centroids\0A\00", align 1

; Function Attrs: mustprogress nounwind uwtable
define linkonce_odr void @_ZNSt12_Destroy_auxILb1EE9__destroyIPfEEvT_S3_(ptr noundef %0, ptr noundef %1) #0 comdat align 2 {
  %3 = alloca ptr, align 8
  %4 = alloca ptr, align 8
  store ptr %0, ptr %3, align 8
  store ptr %1, ptr %4, align 8
  ret void
}

; Function Attrs: mustprogress uwtable
define linkonce_odr void @_ZSt8_DestroyIPfEvT_S1_(ptr noundef %0, ptr noundef %1) #2 comdat {
  %3 = alloca ptr, align 8
  %4 = alloca ptr, align 8
  store ptr %0, ptr %3, align 8
  store ptr %1, ptr %4, align 8
  %5 = load ptr, ptr %3, align 8
  %6 = load ptr, ptr %4, align 8
  call void @_ZNSt12_Destroy_auxILb1EE9__destroyIPfEEvT_S3_(ptr noundef %5, ptr noundef %6)
  ret void
}

; Function Attrs: noreturn nounwind uwtable
define linkonce_odr hidden void @__clang_call_terminate(ptr noundef %0) #4 comdat {
  %2 = call ptr @__cxa_begin_catch(ptr %0) #11
  call void @_ZSt9terminatev() #17
  unreachable
}

; Function Attrs: mustprogress uwtable
define linkonce_odr void @_ZSt8_DestroyIPffEvT_S1_RSaIT0_E(ptr noundef %0, ptr noundef %1, ptr noundef nonnull align 1 dereferenceable(1) %2) #2 comdat {
  %4 = alloca ptr, align 8
  %5 = alloca ptr, align 8
  %6 = alloca ptr, align 8
  store ptr %0, ptr %4, align 8
  store ptr %1, ptr %5, align 8
  store ptr %2, ptr %6, align 8
  %7 = load ptr, ptr %4, align 8
  %8 = load ptr, ptr %5, align 8
  call void @_ZSt8_DestroyIPfEvT_S1_(ptr noundef %7, ptr noundef %8)
  ret void
}

; Function Attrs: mustprogress nounwind uwtable
define linkonce_odr noundef nonnull align 1 dereferenceable(1) ptr @_ZNSt12_Vector_baseIfSaIfEE19_M_get_Tp_allocatorEv(ptr noundef nonnull align 8 dereferenceable(24) %0) #0 comdat align 2 {
  %2 = alloca ptr, align 8
  store ptr %0, ptr %2, align 8
  %3 = load ptr, ptr %2, align 8
  %4 = getelementptr inbounds %"struct.std::_Vector_base.6", ptr %3, i32 0, i32 0
  ret ptr %4
}

; Function Attrs: mustprogress nounwind uwtable
define linkonce_odr noundef ptr @_ZNKSt6vectorIfSaIfEE11_M_data_ptrIfEEPT_S4_(ptr noundef nonnull align 8 dereferenceable(24) %0, ptr noundef %1) #0 comdat align 2 {
  %3 = alloca ptr, align 8
  %4 = alloca ptr, align 8
  store ptr %0, ptr %3, align 8
  store ptr %1, ptr %4, align 8
  %5 = load ptr, ptr %4, align 8
  ret ptr %5
}

; Function Attrs: mustprogress nounwind uwtable
define linkonce_odr void @_ZNSt6vectorIfSaIfEE15_M_erase_at_endEPf(ptr noundef nonnull align 8 dereferenceable(24) %0, ptr noundef %1) #0 comdat align 2 personality ptr @__gxx_personality_v0 {
  %3 = alloca ptr, align 8
  %4 = alloca ptr, align 8
  %5 = alloca i64, align 8
  store ptr %0, ptr %3, align 8
  store ptr %1, ptr %4, align 8
  %6 = load ptr, ptr %3, align 8
  %7 = getelementptr inbounds %"struct.std::_Vector_base.6", ptr %6, i32 0, i32 0
  %8 = getelementptr inbounds %"struct.std::_Vector_base<float, std::allocator<float>>::_Vector_impl_data", ptr %7, i32 0, i32 1
  %9 = load ptr, ptr %8, align 8
  %10 = load ptr, ptr %4, align 8
  %11 = ptrtoint ptr %9 to i64
  %12 = ptrtoint ptr %10 to i64
  %13 = sub i64 %11, %12
  %14 = sdiv exact i64 %13, 4
  store i64 %14, ptr %5, align 8
  %15 = load i64, ptr %5, align 8
  %16 = icmp ne i64 %15, 0
  br i1 %16, label %17, label %27

17:                                               ; preds = %2
  %18 = load ptr, ptr %4, align 8
  %19 = getelementptr inbounds %"struct.std::_Vector_base.6", ptr %6, i32 0, i32 0
  %20 = getelementptr inbounds %"struct.std::_Vector_base<float, std::allocator<float>>::_Vector_impl_data", ptr %19, i32 0, i32 1
  %21 = load ptr, ptr %20, align 8
  %22 = call noundef nonnull align 1 dereferenceable(1) ptr @_ZNSt12_Vector_baseIfSaIfEE19_M_get_Tp_allocatorEv(ptr noundef nonnull align 8 dereferenceable(24) %6) #11
  invoke void @_ZSt8_DestroyIPffEvT_S1_RSaIT0_E(ptr noundef %18, ptr noundef %21, ptr noundef nonnull align 1 dereferenceable(1) %22)
          to label %23 unwind label %28

23:                                               ; preds = %17
  %24 = load ptr, ptr %4, align 8
  %25 = getelementptr inbounds %"struct.std::_Vector_base.6", ptr %6, i32 0, i32 0
  %26 = getelementptr inbounds %"struct.std::_Vector_base<float, std::allocator<float>>::_Vector_impl_data", ptr %25, i32 0, i32 1
  store ptr %24, ptr %26, align 8
  br label %27

27:                                               ; preds = %23, %2
  ret void

28:                                               ; preds = %17
  %29 = landingpad { ptr, i32 }
          catch ptr null
  %30 = extractvalue { ptr, i32 } %29, 0
  call void @__clang_call_terminate(ptr %30) #17
  unreachable
}

; Function Attrs: mustprogress nounwind uwtable
define linkonce_odr noundef i64 @_ZNKSt6vectorIfSaIfEE4sizeEv(ptr noundef nonnull align 8 dereferenceable(24) %0) #0 comdat align 2 {
  %2 = alloca ptr, align 8
  store ptr %0, ptr %2, align 8
  %3 = load ptr, ptr %2, align 8
  %4 = getelementptr inbounds %"struct.std::_Vector_base.6", ptr %3, i32 0, i32 0
  %5 = getelementptr inbounds %"struct.std::_Vector_base<float, std::allocator<float>>::_Vector_impl_data", ptr %4, i32 0, i32 1
  %6 = load ptr, ptr %5, align 8
  %7 = getelementptr inbounds %"struct.std::_Vector_base.6", ptr %3, i32 0, i32 0
  %8 = getelementptr inbounds %"struct.std::_Vector_base<float, std::allocator<float>>::_Vector_impl_data", ptr %7, i32 0, i32 0
  %9 = load ptr, ptr %8, align 8
  %10 = ptrtoint ptr %6 to i64
  %11 = ptrtoint ptr %9 to i64
  %12 = sub i64 %10, %11
  %13 = sdiv exact i64 %12, 4
  ret i64 %13
}

; Function Attrs: mustprogress nounwind uwtable
define linkonce_odr noundef ptr @_ZNSt6vectorIfSaIfEE4dataEv(ptr noundef nonnull align 8 dereferenceable(24) %0) #0 comdat align 2 {
  %2 = alloca ptr, align 8
  store ptr %0, ptr %2, align 8
  %3 = load ptr, ptr %2, align 8
  %4 = getelementptr inbounds %"struct.std::_Vector_base.6", ptr %3, i32 0, i32 0
  %5 = getelementptr inbounds %"struct.std::_Vector_base<float, std::allocator<float>>::_Vector_impl_data", ptr %4, i32 0, i32 0
  %6 = load ptr, ptr %5, align 8
  %7 = call noundef ptr @_ZNKSt6vectorIfSaIfEE11_M_data_ptrIfEEPT_S4_(ptr noundef nonnull align 8 dereferenceable(24) %3, ptr noundef %6) #11
  ret ptr %7
}

; Function Attrs: mustprogress uwtable
define linkonce_odr void @_ZNSt6vectorIfSaIfEE6resizeEm(ptr noundef nonnull align 8 dereferenceable(24) %0, i64 noundef %1) #2 comdat align 2 {
  %3 = alloca ptr, align 8
  %4 = alloca i64, align 8
  store ptr %0, ptr %3, align 8
  store i64 %1, ptr %4, align 8
  %5 = load ptr, ptr %3, align 8
  %6 = load i64, ptr %4, align 8
  %7 = call noundef i64 @_ZNKSt6vectorIfSaIfEE4sizeEv(ptr noundef nonnull align 8 dereferenceable(24) %5) #11
  %8 = icmp ugt i64 %6, %7
  br i1 %8, label %9, label %13

9:                                                ; preds = %2
  %10 = load i64, ptr %4, align 8
  %11 = call noundef i64 @_ZNKSt6vectorIfSaIfEE4sizeEv(ptr noundef nonnull align 8 dereferenceable(24) %5) #11
  %12 = sub i64 %10, %11
  call void @_ZNSt6vectorIfSaIfEE17_M_default_appendEm(ptr noundef nonnull align 8 dereferenceable(24) %5, i64 noundef %12)
  br label %24

13:                                               ; preds = %2
  %14 = load i64, ptr %4, align 8
  %15 = call noundef i64 @_ZNKSt6vectorIfSaIfEE4sizeEv(ptr noundef nonnull align 8 dereferenceable(24) %5) #11
  %16 = icmp ult i64 %14, %15
  br i1 %16, label %17, label %23

17:                                               ; preds = %13
  %18 = getelementptr inbounds %"struct.std::_Vector_base.6", ptr %5, i32 0, i32 0
  %19 = getelementptr inbounds %"struct.std::_Vector_base<float, std::allocator<float>>::_Vector_impl_data", ptr %18, i32 0, i32 0
  %20 = load ptr, ptr %19, align 8
  %21 = load i64, ptr %4, align 8
  %22 = getelementptr inbounds float, ptr %20, i64 %21
  call void @_ZNSt6vectorIfSaIfEE15_M_erase_at_endEPf(ptr noundef nonnull align 8 dereferenceable(24) %5, ptr noundef %22) #11
  br label %23

23:                                               ; preds = %17, %13
  br label %24

24:                                               ; preds = %23, %9
  ret void
}

; Function Attrs: mustprogress uwtable
define void @_ZN5faiss23AdditiveCoarseQuantizer5trainElPKf(ptr noundef nonnull align 8 dereferenceable(72) %0, i64 noundef %1, ptr noundef %2) unnamed_addr #2 align 2 personality ptr @__gxx_personality_v0 {
  %4 = alloca ptr, align 8
  %5 = alloca i64, align 8
  %6 = alloca ptr, align 8
  %7 = alloca i64, align 8
  %8 = alloca %"class.std::__cxx11::basic_string", align 8
  %9 = alloca i32, align 4
  %10 = alloca ptr, align 8
  %11 = alloca i32, align 4
  store ptr %0, ptr %4, align 8
  store i64 %1, ptr %5, align 8
  store ptr %2, ptr %6, align 8
  %12 = load ptr, ptr %4, align 8
  %13 = getelementptr inbounds %"struct.faiss::Index", ptr %12, i32 0, i32 4
  %14 = load i8, ptr %13, align 8
  %15 = trunc i8 %14 to i1
  br i1 %15, label %16, label %19

16:                                               ; preds = %3
  %17 = load i64, ptr %5, align 8
  %18 = call i32 (ptr, ...) @printf(ptr noundef @.str.10, i64 noundef %17)
  br label %19

19:                                               ; preds = %16, %3
  %20 = getelementptr inbounds %"struct.faiss::AdditiveCoarseQuantizer", ptr %12, i32 0, i32 1
  %21 = load ptr, ptr %20, align 8
  %22 = getelementptr inbounds %"struct.faiss::AdditiveQuantizer", ptr %21, i32 0, i32 5
  %23 = load i64, ptr %22, align 8
  %24 = shl i64 4, %23
  store i64 %24, ptr %7, align 8
  br label %25

25:                                               ; preds = %19
  %26 = load i64, ptr %7, align 8
  %27 = getelementptr inbounds %"struct.faiss::AdditiveCoarseQuantizer", ptr %12, i32 0, i32 1
  %28 = load ptr, ptr %27, align 8
  %29 = getelementptr inbounds %"struct.faiss::AdditiveQuantizer", ptr %28, i32 0, i32 14
  %30 = load i64, ptr %29, align 8
  %31 = icmp ule i64 %26, %30
  br i1 %31, label %55, label %32

32:                                               ; preds = %25
  br label %33

33:                                               ; preds = %32
  call void @_ZNSt7__cxx1112basic_stringIcSt11char_traitsIcESaIcEEC1Ev(ptr noundef nonnull align 8 dereferenceable(32) %8) #11
  %34 = call i32 (ptr, i64, ptr, ...) @snprintf(ptr noundef null, i64 noundef 0, ptr noundef @.str.11, ptr noundef @.str.12) #11
  store i32 %34, ptr %9, align 4
  %35 = load i32, ptr %9, align 4
  %36 = add nsw i32 %35, 1
  %37 = sext i32 %36 to i64
  invoke void @_ZNSt7__cxx1112basic_stringIcSt11char_traitsIcESaIcEE6resizeEm(ptr noundef nonnull align 8 dereferenceable(32) %8, i64 noundef %37)
          to label %38 unwind label %45

38:                                               ; preds = %33
  %39 = invoke noundef nonnull align 1 dereferenceable(1) ptr @_ZNSt7__cxx1112basic_stringIcSt11char_traitsIcESaIcEEixEm(ptr noundef nonnull align 8 dereferenceable(32) %8, i64 noundef 0)
          to label %40 unwind label %45

40:                                               ; preds = %38
  %41 = call noundef i64 @_ZNKSt7__cxx1112basic_stringIcSt11char_traitsIcESaIcEE4sizeEv(ptr noundef nonnull align 8 dereferenceable(32) %8) #11
  %42 = call i32 (ptr, i64, ptr, ...) @snprintf(ptr noundef %39, i64 noundef %41, ptr noundef @.str.11, ptr noundef @.str.12) #11
  %43 = call ptr @__cxa_allocate_exception(i64 40) #11
  invoke void @_ZN5faiss14FaissExceptionC1ERKNSt7__cxx1112basic_stringIcSt11char_traitsIcESaIcEEEPKcSA_i(ptr noundef nonnull align 8 dereferenceable(40) %43, ptr noundef nonnull align 8 dereferenceable(32) %8, ptr noundef @__PRETTY_FUNCTION__._ZN5faiss23AdditiveCoarseQuantizer5trainElPKf, ptr noundef @.str.2, i32 noundef 440)
          to label %44 unwind label %49

44:                                               ; preds = %40
  invoke void @__cxa_throw(ptr %43, ptr @_ZTIN5faiss14FaissExceptionE, ptr @_ZN5faiss14FaissExceptionD2Ev) #15
          to label %96 unwind label %45

45:                                               ; preds = %44, %38, %33
  %46 = landingpad { ptr, i32 }
          cleanup
  %47 = extractvalue { ptr, i32 } %46, 0
  store ptr %47, ptr %10, align 8
  %48 = extractvalue { ptr, i32 } %46, 1
  store i32 %48, ptr %11, align 4
  br label %53

49:                                               ; preds = %40
  %50 = landingpad { ptr, i32 }
          cleanup
  %51 = extractvalue { ptr, i32 } %50, 0
  store ptr %51, ptr %10, align 8
  %52 = extractvalue { ptr, i32 } %50, 1
  store i32 %52, ptr %11, align 4
  call void @__cxa_free_exception(ptr %43) #11
  br label %53

53:                                               ; preds = %49, %45
  call void @_ZNSt7__cxx1112basic_stringIcSt11char_traitsIcESaIcEED1Ev(ptr noundef nonnull align 8 dereferenceable(32) %8) #11
  br label %91

54:                                               ; No predecessors!
  br label %55

55:                                               ; preds = %54, %25
  br label %56

56:                                               ; preds = %55
  %57 = getelementptr inbounds %"struct.faiss::AdditiveCoarseQuantizer", ptr %12, i32 0, i32 1
  %58 = load ptr, ptr %57, align 8
  %59 = load i64, ptr %5, align 8
  %60 = load ptr, ptr %6, align 8
  %61 = load ptr, ptr %58, align 8
  %62 = getelementptr inbounds ptr, ptr %61, i64 0
  %63 = load ptr, ptr %62, align 8
  call void %63(ptr noundef nonnull align 8 dereferenceable(24) %58, i64 noundef %59, ptr noundef %60)
  %64 = getelementptr inbounds %"struct.faiss::Index", ptr %12, i32 0, i32 5
  store i8 1, ptr %64, align 1
  %65 = getelementptr inbounds %"struct.faiss::AdditiveCoarseQuantizer", ptr %12, i32 0, i32 1
  %66 = load ptr, ptr %65, align 8
  %67 = getelementptr inbounds %"struct.faiss::AdditiveQuantizer", ptr %66, i32 0, i32 5
  %68 = load i64, ptr %67, align 8
  %69 = shl i64 1, %68
  %70 = getelementptr inbounds %"struct.faiss::Index", ptr %12, i32 0, i32 3
  store i64 %69, ptr %70, align 8
  %71 = getelementptr inbounds %"struct.faiss::Index", ptr %12, i32 0, i32 7
  %72 = load i32, ptr %71, align 4
  %73 = icmp eq i32 %72, 1
  br i1 %73, label %74, label %90

74:                                               ; preds = %56
  %75 = getelementptr inbounds %"struct.faiss::Index", ptr %12, i32 0, i32 4
  %76 = load i8, ptr %75, align 8
  %77 = trunc i8 %76 to i1
  br i1 %77, label %78, label %82

78:                                               ; preds = %74
  %79 = getelementptr inbounds %"struct.faiss::Index", ptr %12, i32 0, i32 3
  %80 = load i64, ptr %79, align 8
  %81 = call i32 (ptr, ...) @printf(ptr noundef @.str.13, i64 noundef %80)
  br label %82

82:                                               ; preds = %78, %74
  %83 = getelementptr inbounds %"struct.faiss::AdditiveCoarseQuantizer", ptr %12, i32 0, i32 2
  %84 = getelementptr inbounds %"struct.faiss::Index", ptr %12, i32 0, i32 3
  %85 = load i64, ptr %84, align 8
  call void @_ZNSt6vectorIfSaIfEE6resizeEm(ptr noundef nonnull align 8 dereferenceable(24) %83, i64 noundef %85)
  %86 = getelementptr inbounds %"struct.faiss::AdditiveCoarseQuantizer", ptr %12, i32 0, i32 1
  %87 = load ptr, ptr %86, align 8
  %88 = getelementptr inbounds %"struct.faiss::AdditiveCoarseQuantizer", ptr %12, i32 0, i32 2
  %89 = call noundef ptr @_ZNSt6vectorIfSaIfEE4dataEv(ptr noundef nonnull align 8 dereferenceable(24) %88) #11
  call void @_ZNK5faiss17AdditiveQuantizer22compute_centroid_normsEPf(ptr noundef nonnull align 8 dereferenceable(308) %87, ptr noundef %89)
  br label %90

90:                                               ; preds = %82, %56
  ret void

91:                                               ; preds = %53
  %92 = load ptr, ptr %10, align 8
  %93 = load i32, ptr %11, align 4
  %94 = insertvalue { ptr, i32 } poison, ptr %92, 0
  %95 = insertvalue { ptr, i32 } %94, i32 %93, 1
  resume { ptr, i32 } %95

96:                                               ; preds = %44
  unreachable
}