; Function Attrs: mustprogress uwtable
define void @_ZN5faiss23AdditiveCoarseQuantizer5trainElPKf(ptr noundef nonnull align 8 dereferenceable(72) %0, i64 noundef %1, ptr noundef %2) unnamed_addr #2 align 2 personality ptr @__gxx_personality_v0 {
  %4 = alloca %"class.std::__cxx11::basic_string", align 8
  %5 = getelementptr inbounds i8, ptr %0, i64 24
  %6 = load i8, ptr %5, align 8
  %7 = and i8 %6, 1
  %.not = icmp eq i8 %7, 0
  br i1 %.not, label %10, label %8

8:                                                ; preds = %3
  %9 = tail call i32 (ptr, ...) @printf(ptr noundef nonnull dereferenceable(1) @.str.10, i64 noundef %1)
  br label %10

10:                                               ; preds = %8, %3
  %11 = getelementptr inbounds i8, ptr %0, i64 40
  %12 = load ptr, ptr %11, align 8
  %13 = getelementptr inbounds i8, ptr %12, i64 104
  %14 = load i64, ptr %13, align 8
  %15 = shl i64 4, %14
  %16 = getelementptr inbounds i8, ptr %12, i64 288
  %17 = load i64, ptr %16, align 8
  %.not8 = icmp ugt i64 %15, %17
  br i1 %.not8, label %18, label %34

18:                                               ; preds = %10
  call void @_ZNSt7__cxx1112basic_stringIcSt11char_traitsIcESaIcEEC1Ev(ptr noundef nonnull align 8 dereferenceable(32) %4) #14
  %19 = call i32 (ptr, i64, ptr, ...) @snprintf(ptr noundef null, i64 noundef 0, ptr noundef nonnull @.str.11, ptr noundef nonnull @.str.12) #14
  %20 = add nsw i32 %19, 1
  %21 = sext i32 %20 to i64
  invoke void @_ZNSt7__cxx1112basic_stringIcSt11char_traitsIcESaIcEE6resizeEm(ptr noundef nonnull align 8 dereferenceable(32) %4, i64 noundef %21)
          to label %22 unwind label %29

22:                                               ; preds = %18
  %23 = invoke noundef nonnull align 1 dereferenceable(1) ptr @_ZNSt7__cxx1112basic_stringIcSt11char_traitsIcESaIcEEixEm(ptr noundef nonnull align 8 dereferenceable(32) %4, i64 noundef 0)
          to label %24 unwind label %29

24:                                               ; preds = %22
  %25 = call noundef i64 @_ZNKSt7__cxx1112basic_stringIcSt11char_traitsIcESaIcEE4sizeEv(ptr noundef nonnull align 8 dereferenceable(32) %4) #14
  %26 = call i32 (ptr, i64, ptr, ...) @snprintf(ptr noundef nonnull %23, i64 noundef %25, ptr noundef nonnull @.str.11, ptr noundef nonnull @.str.12) #14
  %27 = call ptr @__cxa_allocate_exception(i64 40) #14
  invoke void @_ZN5faiss14FaissExceptionC1ERKNSt7__cxx1112basic_stringIcSt11char_traitsIcESaIcEEEPKcSA_i(ptr noundef nonnull align 8 dereferenceable(40) %27, ptr noundef nonnull align 8 dereferenceable(32) %4, ptr noundef nonnull @__PRETTY_FUNCTION__._ZN5faiss23AdditiveCoarseQuantizer5trainElPKf, ptr noundef nonnull @.str.2, i32 noundef 440)
          to label %28 unwind label %31

28:                                               ; preds = %24
  invoke void @__cxa_throw(ptr nonnull %27, ptr nonnull @_ZTIN5faiss14FaissExceptionE, ptr nonnull @_ZN5faiss14FaissExceptionD2Ev) #21
          to label %72 unwind label %29

29:                                               ; preds = %28, %22, %18
  %30 = landingpad { ptr, i32 }
          cleanup
  br label %33

31:                                               ; preds = %24
  %32 = landingpad { ptr, i32 }
          cleanup
  call void @__cxa_free_exception(ptr %27) #14
  br label %33

33:                                               ; preds = %31, %29
  %.pn = phi { ptr, i32 } [ %30, %29 ], [ %32, %31 ]
  call void @_ZNSt7__cxx1112basic_stringIcSt11char_traitsIcESaIcEED1Ev(ptr noundef nonnull align 8 dereferenceable(32) %4) #14
  resume { ptr, i32 } %.pn

34:                                               ; preds = %10
  %35 = load ptr, ptr %12, align 8
  %36 = load ptr, ptr %35, align 8
  tail call void %36(ptr noundef nonnull align 8 dereferenceable(24) %12, i64 noundef %1, ptr noundef %2)
  %37 = getelementptr inbounds i8, ptr %0, i64 25
  store i8 1, ptr %37, align 1
  %38 = load ptr, ptr %11, align 8
  %39 = getelementptr inbounds i8, ptr %38, i64 104
  %40 = load i64, ptr %39, align 8
  %41 = shl nuw i64 1, %40
  %42 = getelementptr inbounds i8, ptr %0, i64 16
  store i64 %41, ptr %42, align 8
  %43 = getelementptr inbounds i8, ptr %0, i64 28
  %44 = load i32, ptr %43, align 4
  %45 = icmp eq i32 %44, 1
  br i1 %45, label %46, label %71

46:                                               ; preds = %34
  %47 = load i8, ptr %5, align 8
  %48 = and i8 %47, 1
  %.not10 = icmp eq i8 %48, 0
  br i1 %.not10, label %51, label %49

49:                                               ; preds = %46
  %50 = tail call i32 (ptr, ...) @printf(ptr noundef nonnull dereferenceable(1) @.str.13, i64 noundef %41)
  %.pre = load i64, ptr %42, align 8
  br label %51

51:                                               ; preds = %49, %46
  %52 = phi i64 [ %.pre, %49 ], [ %41, %46 ]
  %53 = getelementptr inbounds i8, ptr %0, i64 48
  %54 = getelementptr inbounds i8, ptr %0, i64 56
  %55 = load ptr, ptr %54, align 8
  %56 = load ptr, ptr %53, align 8
  %57 = ptrtoint ptr %55 to i64
  %58 = ptrtoint ptr %56 to i64
  %59 = sub i64 %57, %58
  %60 = ashr exact i64 %59, 2
  %61 = icmp ult i64 %60, %52
  br i1 %61, label %62, label %64

62:                                               ; preds = %51
  %63 = sub i64 %52, %60
  tail call void @_ZNSt6vectorIfSaIfEE17_M_default_appendEm(ptr noundef nonnull align 8 dereferenceable(24) %53, i64 noundef %63)
  %.pre11 = load ptr, ptr %53, align 8
  br label %_ZNSt6vectorIfSaIfEE6resizeEm.exit

64:                                               ; preds = %51
  %65 = icmp ugt i64 %60, %52
  br i1 %65, label %66, label %_ZNSt6vectorIfSaIfEE6resizeEm.exit

66:                                               ; preds = %64
  %67 = getelementptr inbounds float, ptr %56, i64 %52
  %.not.i.i = icmp eq ptr %55, %67
  br i1 %.not.i.i, label %_ZNSt6vectorIfSaIfEE6resizeEm.exit, label %68

68:                                               ; preds = %66
  store ptr %67, ptr %54, align 8
  br label %_ZNSt6vectorIfSaIfEE6resizeEm.exit

_ZNSt6vectorIfSaIfEE6resizeEm.exit:               ; preds = %62, %64, %66, %68
  %69 = phi ptr [ %.pre11, %62 ], [ %56, %64 ], [ %56, %66 ], [ %56, %68 ]
  %70 = load ptr, ptr %11, align 8
  tail call void @_ZNK5faiss17AdditiveQuantizer22compute_centroid_normsEPf(ptr noundef nonnull align 8 dereferenceable(308) %70, ptr noundef %69)
  br label %71

71:                                               ; preds = %_ZNSt6vectorIfSaIfEE6resizeEm.exit, %34
  ret void

72:                                               ; preds = %28
  unreachable
}